target datalayout = "e-m:e-p270:32:32-p271:32:32-p272:64:64-i64:64-i128:128-f80:128-n8:16:32:64-S128"
target triple = "x86_64-pc-linux-gnu"

%union.pthread_mutex_t = type { %struct.__pthread_mutex_s }
%struct.__pthread_mutex_s = type { i32, i32, i32, i32, i32, i16, i16, %struct.__pthread_internal_list }
%struct.__pthread_internal_list = type { ptr, ptr }
%union.pthread_cond_t = type { %struct.__pthread_cond_s }
%struct.__pthread_cond_s = type { %union.__atomic_wide_counter, %union.__atomic_wide_counter, [2 x i32], [2 x i32], i32, i32, [2 x i32] }
%union.__atomic_wide_counter = type { i64 }
%struct.jobgroup = type { %union.pthread_mutex_t, %union.pthread_cond_t, i32, i32, i32, i32, i32 }

@.str.20 = private unnamed_addr constant [32 x i8] c"THRMGR: active jobs for %p: %d\0A\00", align 1

; Function Attrs: nounwind uwtable
define dso_local i32 @thrmgr_group_dispatch(ptr noundef %0, ptr noundef %1, ptr noundef %2, i32 noundef %3) #0 {
  %5 = alloca ptr, align 8
  %6 = alloca ptr, align 8
  %7 = alloca ptr, align 8
  %8 = alloca i32, align 4
  %9 = alloca i32, align 4
  store ptr %0, ptr %5, align 8
  store ptr %1, ptr %6, align 8
  store ptr %2, ptr %7, align 8
  store i32 %3, ptr %8, align 4
  %10 = load ptr, ptr %6, align 8
  %11 = icmp ne ptr %10, null
  br i1 %11, label %12, label %28

12:                                               ; preds = %4
  %13 = load ptr, ptr %6, align 8
  %14 = getelementptr inbounds %struct.jobgroup, ptr %13, i32 0, i32 0
  %15 = call i32 @pthread_mutex_lock(ptr noundef %14) #8
  %16 = load ptr, ptr %6, align 8
  %17 = getelementptr inbounds %struct.jobgroup, ptr %16, i32 0, i32 2
  %18 = load i32, ptr %17, align 8
  %19 = add i32 %18, 1
  store i32 %19, ptr %17, align 8
  %20 = load ptr, ptr %6, align 8
  %21 = load ptr, ptr %6, align 8
  %22 = getelementptr inbounds %struct.jobgroup, ptr %21, i32 0, i32 2
  %23 = load i32, ptr %22, align 8
  %24 = call i32 (i32, ptr, ...) @logg(i32 noundef 3, ptr noundef @.str.20, ptr noundef %20, i32 noundef %23)
  %25 = load ptr, ptr %6, align 8
  %26 = getelementptr inbounds %struct.jobgroup, ptr %25, i32 0, i32 0
  %27 = call i32 @pthread_mutex_unlock(ptr noundef %26) #8
  br label %28

28:                                               ; preds = %12, %4
  %29 = load ptr, ptr %5, align 8
  %30 = load ptr, ptr %7, align 8
  %31 = load i32, ptr %8, align 4
  %32 = call i32 @thrmgr_dispatch_internal(ptr noundef %29, ptr noundef %30, i32 noundef %31)
  store i32 %32, ptr %9, align 4
  %33 = icmp ne i32 %32, 0
  br i1 %33, label %53, label %34

34:                                               ; preds = %28
  %35 = load ptr, ptr %6, align 8
  %36 = icmp ne ptr %35, null
  br i1 %36, label %37, label %53

37:                                               ; preds = %34
  %38 = load ptr, ptr %6, align 8
  %39 = getelementptr inbounds %struct.jobgroup, ptr %38, i32 0, i32 0
  %40 = call i32 @pthread_mutex_lock(ptr noundef %39) #8
  %41 = load ptr, ptr %6, align 8
  %42 = getelementptr inbounds %struct.jobgroup, ptr %41, i32 0, i32 2
  %43 = load i32, ptr %42, align 8
  %44 = add i32 %43, -1
  store i32 %44, ptr %42, align 8
  %45 = load ptr, ptr %6, align 8
  %46 = load ptr, ptr %6, align 8
  %47 = getelementptr inbounds %struct.jobgroup, ptr %46, i32 0, i32 2
  %48 = load i32, ptr %47, align 8
  %49 = call i32 (i32, ptr, ...) @logg(i32 noundef 3, ptr noundef @.str.20, ptr noundef %45, i32 noundef %48)
  %50 = load ptr, ptr %6, align 8
  %51 = getelementptr inbounds %struct.jobgroup, ptr %50, i32 0, i32 0
  %52 = call i32 @pthread_mutex_unlock(ptr noundef %51) #8
  br label %53

53:                                               ; preds = %37, %34, %28
  %54 = load i32, ptr %9, align 4
  ret i32 %54
}