; Function Attrs: nounwind uwtable
define dso_local noundef i32 @thrmgr_group_dispatch(ptr noundef %0, ptr noundef %1, ptr noundef %2, i32 noundef %3) local_unnamed_addr #0 {
  %.not = icmp eq ptr %1, null
  br i1 %.not, label %.thread, label %6

.thread:                                          ; preds = %4
  %5 = tail call fastcc i32 @thrmgr_dispatch_internal(ptr noundef %0, ptr noundef %2, i32 noundef %3), !range !5
  br label %21

6:                                                ; preds = %4
  %7 = tail call i32 @pthread_mutex_lock(ptr noundef nonnull %1) #12
  %8 = getelementptr inbounds i8, ptr %1, i64 88
  %9 = load i32, ptr %8, align 8
  %10 = add i32 %9, 1
  store i32 %10, ptr %8, align 8
  %11 = tail call i32 (i32, ptr, ...) @logg(i32 noundef 3, ptr noundef nonnull @.str.20, ptr noundef nonnull %1, i32 noundef %10) #12
  %12 = tail call i32 @pthread_mutex_unlock(ptr noundef nonnull %1) #12
  %13 = tail call fastcc i32 @thrmgr_dispatch_internal(ptr noundef %0, ptr noundef %2, i32 noundef %3), !range !5
  %14 = icmp eq i32 %13, 0
  br i1 %14, label %15, label %21

15:                                               ; preds = %6
  %16 = tail call i32 @pthread_mutex_lock(ptr noundef nonnull %1) #12
  %17 = load i32, ptr %8, align 8
  %18 = add i32 %17, -1
  store i32 %18, ptr %8, align 8
  %19 = tail call i32 (i32, ptr, ...) @logg(i32 noundef 3, ptr noundef nonnull @.str.20, ptr noundef nonnull %1, i32 noundef %18) #12
  %20 = tail call i32 @pthread_mutex_unlock(ptr noundef nonnull %1) #12
  br label %21

21:                                               ; preds = %.thread, %15, %6
  %22 = phi i32 [ %5, %.thread ], [ 0, %15 ], [ 1, %6 ]
  ret i32 %22
}